; Function Attrs: mustprogress nofree norecurse nounwind memory(argmem: readwrite) uwtable
define void @_ZNK9grpc_core27HistogramCollector_65536_267CollectEPNS_18Histogram_65536_26E(ptr noundef nonnull readonly align 8 captures(none) dereferenceable(208) %0, ptr noundef captures(none) %1) local_unnamed_addr #0 align 2 personality ptr @__gxx_personality_v0 {
  br label %4

3:                                                ; preds = %4
  ret void

4:                                                ; preds = %2, %4
  %indvars.iv = phi i64 [ 0, %2 ], [ %indvars.iv.next, %4 ]
  %5 = getelementptr inbounds nuw [26 x %"struct.std::atomic"], ptr %0, i64 0, i64 %indvars.iv
  %6 = load atomic i64, ptr %5 monotonic, align 8
  %7 = getelementptr inbounds nuw [26 x i64], ptr %1, i64 0, i64 %indvars.iv
  %8 = load i64, ptr %7, align 8, !tbaa !3
  %9 = add i64 %8, %6
  store i64 %9, ptr %7, align 8, !tbaa !3
  %indvars.iv.next = add nuw nsw i64 %indvars.iv, 1
  %exitcond.not = icmp eq i64 %indvars.iv.next, 26
  br i1 %exitcond.not, label %3, label %4, !llvm.loop !10
}